; Function Attrs: mustprogress uwtable
define hidden void @_ZN10smt_params15setup_QF_AUFLIAERK15static_features(ptr nocapture noundef nonnull writeonly align 8 dereferenceable(800) %this, ptr nocapture noundef nonnull readonly align 8 dereferenceable(792) %st) local_unnamed_addr #3 align 2 personality ptr @__gxx_personality_v0 {
entry:
  %ref.tmp = alloca %"class.std::__cxx11::basic_string", align 8
  %ref.tmp3 = alloca %"class.std::allocator", align 1
  %m_has_ext_arrays = getelementptr inbounds i8, ptr %st, i64 525
  %0 = load i8, ptr %m_has_ext_arrays, align 1
  %1 = and i8 %0, 1
  %tobool.not = icmp eq i8 %1, 0
  %cond = select i1 %tobool.not, i32 1, i32 3
  %m_array_mode = getelementptr inbounds i8, ptr %this, i64 396
  store i32 %cond, ptr %m_array_mode, align 4
  %m_has_real = getelementptr inbounds i8, ptr %st, i64 518
  %2 = load i8, ptr %m_has_real, align 2
  %3 = and i8 %2, 1
  %tobool2.not = icmp eq i8 %3, 0
  br i1 %tobool2.not, label %if.end, label %if.then

if.then:                                          ; preds = %entry
  %exception = tail call ptr @__cxa_allocate_exception(i64 40) #14
  call void @_ZNSaIcEC1Ev(ptr noundef nonnull align 1 dereferenceable(1) %ref.tmp3) #14
  invoke void @_ZNSt7__cxx1112basic_stringIcSt11char_traitsIcESaIcEEC2IS3_EEPKcRKS3_(ptr noundef nonnull align 8 dereferenceable(32) %ref.tmp, ptr noundef nonnull @.str.86, ptr noundef nonnull align 1 dereferenceable(1) %ref.tmp3)
          to label %invoke.cont unwind label %cleanup.action

invoke.cont:                                      ; preds = %if.then
  store ptr getelementptr inbounds ({ [6 x ptr] }, ptr @_ZTV17default_exception, i64 0, i32 0, i64 2), ptr %exception, align 8
  %m_msg.i = getelementptr inbounds i8, ptr %exception, i64 8
  call void @_ZNSt7__cxx1112basic_stringIcSt11char_traitsIcESaIcEEC1EOS4_(ptr noundef nonnull align 8 dereferenceable(32) %m_msg.i, ptr noundef nonnull align 8 dereferenceable(32) %ref.tmp) #14
  invoke void @__cxa_throw(ptr nonnull %exception, ptr nonnull @_ZTI17default_exception, ptr nonnull @_ZN17default_exceptionD2Ev) #15
          to label %unreachable unwind label %ehcleanup

ehcleanup:                                        ; preds = %invoke.cont
  %4 = landingpad { ptr, i32 }
          cleanup
  call void @_ZNSt7__cxx1112basic_stringIcSt11char_traitsIcESaIcEED1Ev(ptr noundef nonnull align 8 dereferenceable(32) %ref.tmp) #14
  call void @_ZNSaIcED1Ev(ptr noundef nonnull align 1 dereferenceable(1) %ref.tmp3) #14
  br label %eh.resume

cleanup.action:                                   ; preds = %if.then
  %5 = landingpad { ptr, i32 }
          cleanup
  call void @_ZNSaIcED1Ev(ptr noundef nonnull align 1 dereferenceable(1) %ref.tmp3) #14
  call void @__cxa_free_exception(ptr %exception) #14
  br label %eh.resume

if.end:                                           ; preds = %entry
  %m_nnf_cnf = getelementptr inbounds i8, ptr %this, i64 58
  store i8 0, ptr %m_nnf_cnf, align 2
  %m_num_clauses = getelementptr inbounds i8, ptr %st, i64 428
  %6 = load i32, ptr %m_num_clauses, align 4
  %m_num_units = getelementptr inbounds i8, ptr %st, i64 436
  %7 = load i32, ptr %m_num_units, align 4
  %cmp = icmp eq i32 %6, %7
  br i1 %cmp, label %if.end10, label %if.else

if.else:                                          ; preds = %if.end
  %m_restart_strategy = getelementptr inbounds i8, ptr %this, i64 636
  store i32 0, ptr %m_restart_strategy, align 4
  %m_restart_factor = getelementptr inbounds i8, ptr %this, i64 648
  store double 1.500000e+00, ptr %m_restart_factor, align 8
  %m_random_initial_activity = getelementptr inbounds i8, ptr %this, i64 548
  store i32 0, ptr %m_random_initial_activity, align 4
  br label %if.end10

if.end10:                                         ; preds = %if.end, %if.else
  %.sink = phi i32 [ 4, %if.else ], [ 0, %if.end ]
  %8 = getelementptr inbounds i8, ptr %this, i64 512
  store i32 0, ptr %8, align 8
  %9 = getelementptr inbounds i8, ptr %this, i64 552
  store i32 %.sink, ptr %9, align 8
  ret void

eh.resume:                                        ; preds = %ehcleanup, %cleanup.action
  %.pn7 = phi { ptr, i32 } [ %4, %ehcleanup ], [ %5, %cleanup.action ]
  resume { ptr, i32 } %.pn7

unreachable:                                      ; preds = %invoke.cont
  unreachable
}